target datalayout = "e-m:e-p270:32:32-p271:32:32-p272:64:64-i64:64-i128:128-f80:128-n8:16:32:64-S128"
target triple = "x86_64-unknown-linux-gnu"

%"struct.icu_75::UniProps" = type { i32, i32, [75 x i8], [25 x i32], [4 x i8], i32, i32, i32, i32, i32, i32, i32, ptr, ptr, ptr, %"class.icu_75::UnicodeString", %"class.icu_75::UnicodeString", %"class.icu_75::UnicodeString", %"class.icu_75::UnicodeString", %"class.icu_75::UnicodeSet" }
%"class.icu_75::UnicodeString" = type { %"class.icu_75::Replaceable", %"union.icu_75::UnicodeString::StackBufferOrFields" }
%"class.icu_75::Replaceable" = type { %"class.icu_75::UObject" }
%"class.icu_75::UObject" = type { ptr }
%"union.icu_75::UnicodeString::StackBufferOrFields" = type { %struct.anon.0, [32 x i8] }
%struct.anon.0 = type { i16, i32, i32, ptr }
%"class.icu_75::UnicodeSet" = type <{ %"class.icu_75::UnicodeFilter", ptr, i32, i32, i8, [7 x i8], ptr, ptr, i32, [4 x i8], ptr, i32, [4 x i8], ptr, ptr, [25 x i32], [4 x i8] }>
%"class.icu_75::UnicodeFilter" = type { %"class.icu_75::UnicodeFunctor", %"class.icu_75::UnicodeMatcher" }
%"class.icu_75::UnicodeFunctor" = type { %"class.icu_75::UObject" }
%"class.icu_75::UnicodeMatcher" = type { ptr }
%struct.anon = type { i16, [27 x i16] }

@_ZTVN6icu_7513UnicodeStringE = external unnamed_addr constant { [13 x ptr] }, align 8
@_ZTVN6icu_7511ReplaceableE = external unnamed_addr constant { [13 x ptr] }, align 8
@_ZTVN6icu_757UObjectE = external unnamed_addr constant { [5 x ptr] }, align 8

; Function Attrs: mustprogress nounwind uwtable
define linkonce_odr void @_ZN6icu_757UObjectC2Ev(ptr noundef nonnull align 8 dereferenceable(8) %this) unnamed_addr #0 comdat align 2 {
entry:
  %this.addr = alloca ptr, align 8
  store ptr %this, ptr %this.addr, align 8
  %this1 = load ptr, ptr %this.addr, align 8
  store ptr getelementptr inbounds ({ [5 x ptr] }, ptr @_ZTVN6icu_757UObjectE, i32 0, i32 0, i32 2), ptr %this1, align 8
  ret void
}

; Function Attrs: mustprogress nounwind uwtable
define linkonce_odr void @_ZN6icu_7511ReplaceableC2Ev(ptr noundef nonnull align 8 dereferenceable(8) %this) unnamed_addr #0 comdat align 2 {
entry:
  %this.addr = alloca ptr, align 8
  store ptr %this, ptr %this.addr, align 8
  %this1 = load ptr, ptr %this.addr, align 8
  call void @_ZN6icu_757UObjectC2Ev(ptr noundef nonnull align 8 dereferenceable(8) %this1) #10
  store ptr getelementptr inbounds ({ [13 x ptr] }, ptr @_ZTVN6icu_7511ReplaceableE, i32 0, i32 0, i32 2), ptr %this1, align 8
  ret void
}

; Function Attrs: mustprogress uwtable
define linkonce_odr void @_ZN6icu_7513UnicodeStringC2Ev(ptr noundef nonnull align 8 dereferenceable(64) %this) unnamed_addr #1 comdat align 2 {
entry:
  %this.addr = alloca ptr, align 8
  store ptr %this, ptr %this.addr, align 8
  %this1 = load ptr, ptr %this.addr, align 8
  call void @_ZN6icu_7511ReplaceableC2Ev(ptr noundef nonnull align 8 dereferenceable(8) %this1)
  store ptr getelementptr inbounds ({ [13 x ptr] }, ptr @_ZTVN6icu_7513UnicodeStringE, i32 0, i32 0, i32 2), ptr %this1, align 8
  %fUnion2 = getelementptr inbounds %"class.icu_75::UnicodeString", ptr %this1, i32 0, i32 1
  %fLengthAndFlags = getelementptr inbounds %struct.anon, ptr %fUnion2, i32 0, i32 0
  store i16 2, ptr %fLengthAndFlags, align 8
  ret void
}

; Function Attrs: mustprogress uwtable
define void @_ZN6icu_758UniPropsC2Ev(ptr noundef nonnull align 8 dereferenceable(696) %this) unnamed_addr #1 align 2 personality ptr @__gxx_personality_v0 {
entry:
  %this.addr = alloca ptr, align 8
  %exn.slot = alloca ptr, align 8
  %ehselector.slot = alloca i32, align 4
  store ptr %this, ptr %this.addr, align 8
  %this1 = load ptr, ptr %this.addr, align 8
  %start = getelementptr inbounds %"struct.icu_75::UniProps", ptr %this1, i32 0, i32 0
  store i32 -1, ptr %start, align 8
  %end = getelementptr inbounds %"struct.icu_75::UniProps", ptr %this1, i32 0, i32 1
  store i32 -1, ptr %end, align 4
  %bmg = getelementptr inbounds %"struct.icu_75::UniProps", ptr %this1, i32 0, i32 5
  store i32 -1, ptr %bmg, align 4
  %bpb = getelementptr inbounds %"struct.icu_75::UniProps", ptr %this1, i32 0, i32 6
  store i32 -1, ptr %bpb, align 8
  %scf = getelementptr inbounds %"struct.icu_75::UniProps", ptr %this1, i32 0, i32 7
  store i32 -1, ptr %scf, align 4
  %slc = getelementptr inbounds %"struct.icu_75::UniProps", ptr %this1, i32 0, i32 8
  store i32 -1, ptr %slc, align 8
  %stc = getelementptr inbounds %"struct.icu_75::UniProps", ptr %this1, i32 0, i32 9
  store i32 -1, ptr %stc, align 4
  %suc = getelementptr inbounds %"struct.icu_75::UniProps", ptr %this1, i32 0, i32 10
  store i32 -1, ptr %suc, align 8
  %digitValue = getelementptr inbounds %"struct.icu_75::UniProps", ptr %this1, i32 0, i32 11
  store i32 -1, ptr %digitValue, align 4
  %numericValue = getelementptr inbounds %"struct.icu_75::UniProps", ptr %this1, i32 0, i32 12
  store ptr null, ptr %numericValue, align 8
  %name = getelementptr inbounds %"struct.icu_75::UniProps", ptr %this1, i32 0, i32 13
  store ptr null, ptr %name, align 8
  %nameAlias = getelementptr inbounds %"struct.icu_75::UniProps", ptr %this1, i32 0, i32 14
  store ptr null, ptr %nameAlias, align 8
  %cf = getelementptr inbounds %"struct.icu_75::UniProps", ptr %this1, i32 0, i32 15
  call void @_ZN6icu_7513UnicodeStringC2Ev(ptr noundef nonnull align 8 dereferenceable(64) %cf)
  %lc = getelementptr inbounds %"struct.icu_75::UniProps", ptr %this1, i32 0, i32 16
  invoke void @_ZN6icu_7513UnicodeStringC2Ev(ptr noundef nonnull align 8 dereferenceable(64) %lc)
          to label %invoke.cont unwind label %lpad

invoke.cont:                                      ; preds = %entry
  %tc = getelementptr inbounds %"struct.icu_75::UniProps", ptr %this1, i32 0, i32 17
  invoke void @_ZN6icu_7513UnicodeStringC2Ev(ptr noundef nonnull align 8 dereferenceable(64) %tc)
          to label %invoke.cont3 unwind label %lpad2

invoke.cont3:                                     ; preds = %invoke.cont
  %uc = getelementptr inbounds %"struct.icu_75::UniProps", ptr %this1, i32 0, i32 18
  invoke void @_ZN6icu_7513UnicodeStringC2Ev(ptr noundef nonnull align 8 dereferenceable(64) %uc)
          to label %invoke.cont5 unwind label %lpad4

invoke.cont5:                                     ; preds = %invoke.cont3
  %scx = getelementptr inbounds %"struct.icu_75::UniProps", ptr %this1, i32 0, i32 19
  invoke void @_ZN6icu_7510UnicodeSetC1Ev(ptr noundef nonnull align 8 dereferenceable(200) %scx)
          to label %invoke.cont7 unwind label %lpad6

invoke.cont7:                                     ; preds = %invoke.cont5
  %binProps = getelementptr inbounds %"struct.icu_75::UniProps", ptr %this1, i32 0, i32 2
  %arraydecay = getelementptr inbounds [75 x i8], ptr %binProps, i64 0, i64 0
  call void @llvm.memset.p0.i64(ptr align 8 %arraydecay, i8 0, i64 75, i1 false)
  %intProps = getelementptr inbounds %"struct.icu_75::UniProps", ptr %this1, i32 0, i32 3
  %arraydecay8 = getelementptr inbounds [25 x i32], ptr %intProps, i64 0, i64 0
  call void @llvm.memset.p0.i64(ptr align 4 %arraydecay8, i8 0, i64 100, i1 false)
  %age = getelementptr inbounds %"struct.icu_75::UniProps", ptr %this1, i32 0, i32 4
  %arraydecay9 = getelementptr inbounds [4 x i8], ptr %age, i64 0, i64 0
  call void @llvm.memset.p0.i64(ptr align 8 %arraydecay9, i8 0, i64 4, i1 false)
  ret void

lpad:                                             ; preds = %entry
  %0 = landingpad { ptr, i32 }
          cleanup
  %1 = extractvalue { ptr, i32 } %0, 0
  store ptr %1, ptr %exn.slot, align 8
  %2 = extractvalue { ptr, i32 } %0, 1
  store i32 %2, ptr %ehselector.slot, align 4
  br label %ehcleanup11

lpad2:                                            ; preds = %invoke.cont
  %3 = landingpad { ptr, i32 }
          cleanup
  %4 = extractvalue { ptr, i32 } %3, 0
  store ptr %4, ptr %exn.slot, align 8
  %5 = extractvalue { ptr, i32 } %3, 1
  store i32 %5, ptr %ehselector.slot, align 4
  br label %ehcleanup10

lpad4:                                            ; preds = %invoke.cont3
  %6 = landingpad { ptr, i32 }
          cleanup
  %7 = extractvalue { ptr, i32 } %6, 0
  store ptr %7, ptr %exn.slot, align 8
  %8 = extractvalue { ptr, i32 } %6, 1
  store i32 %8, ptr %ehselector.slot, align 4
  br label %ehcleanup

lpad6:                                            ; preds = %invoke.cont5
  %9 = landingpad { ptr, i32 }
          cleanup
  %10 = extractvalue { ptr, i32 } %9, 0
  store ptr %10, ptr %exn.slot, align 8
  %11 = extractvalue { ptr, i32 } %9, 1
  store i32 %11, ptr %ehselector.slot, align 4
  call void @_ZN6icu_7513UnicodeStringD1Ev(ptr noundef nonnull align 8 dereferenceable(64) %uc) #10
  br label %ehcleanup

ehcleanup:                                        ; preds = %lpad6, %lpad4
  call void @_ZN6icu_7513UnicodeStringD1Ev(ptr noundef nonnull align 8 dereferenceable(64) %tc) #10
  br label %ehcleanup10

ehcleanup10:                                      ; preds = %ehcleanup, %lpad2
  call void @_ZN6icu_7513UnicodeStringD1Ev(ptr noundef nonnull align 8 dereferenceable(64) %lc) #10
  br label %ehcleanup11

ehcleanup11:                                      ; preds = %ehcleanup10, %lpad
  call void @_ZN6icu_7513UnicodeStringD1Ev(ptr noundef nonnull align 8 dereferenceable(64) %cf) #10
  br label %eh.resume

eh.resume:                                        ; preds = %ehcleanup11
  %exn = load ptr, ptr %exn.slot, align 8
  %sel = load i32, ptr %ehselector.slot, align 4
  %lpad.val = insertvalue { ptr, i32 } poison, ptr %exn, 0
  %lpad.val12 = insertvalue { ptr, i32 } %lpad.val, i32 %sel, 1
  resume { ptr, i32 } %lpad.val12
}