; Function Attrs: mustprogress uwtable
define void @_ZN6icu_758UniPropsC2Ev(ptr noundef nonnull align 8 dereferenceable(696) %this) unnamed_addr #1 align 2 personality ptr @__gxx_personality_v0 {
invoke.cont5:
  store i32 -1, ptr %this, align 8
  %end = getelementptr inbounds i8, ptr %this, i64 4
  store i32 -1, ptr %end, align 4
  %bmg = getelementptr inbounds i8, ptr %this, i64 188
  %numericValue = getelementptr inbounds i8, ptr %this, i64 216
  tail call void @llvm.memset.p0.i64(ptr noundef nonnull align 4 dereferenceable(28) %bmg, i8 -1, i64 28, i1 false)
  %cf = getelementptr inbounds i8, ptr %this, i64 240
  tail call void @llvm.memset.p0.i64(ptr noundef nonnull align 8 dereferenceable(24) %numericValue, i8 0, i64 24, i1 false)
  store ptr getelementptr inbounds ({ [13 x ptr] }, ptr @_ZTVN6icu_7513UnicodeStringE, i64 0, i32 0, i64 2), ptr %cf, align 8
  %fUnion2.i = getelementptr inbounds i8, ptr %this, i64 248
  store i16 2, ptr %fUnion2.i, align 8
  %lc = getelementptr inbounds i8, ptr %this, i64 304
  store ptr getelementptr inbounds ({ [13 x ptr] }, ptr @_ZTVN6icu_7513UnicodeStringE, i64 0, i32 0, i64 2), ptr %lc, align 8
  %fUnion2.i4 = getelementptr inbounds i8, ptr %this, i64 312
  store i16 2, ptr %fUnion2.i4, align 8
  %tc = getelementptr inbounds i8, ptr %this, i64 368
  store ptr getelementptr inbounds ({ [13 x ptr] }, ptr @_ZTVN6icu_7513UnicodeStringE, i64 0, i32 0, i64 2), ptr %tc, align 8
  %fUnion2.i5 = getelementptr inbounds i8, ptr %this, i64 376
  store i16 2, ptr %fUnion2.i5, align 8
  %uc = getelementptr inbounds i8, ptr %this, i64 432
  store ptr getelementptr inbounds ({ [13 x ptr] }, ptr @_ZTVN6icu_7513UnicodeStringE, i64 0, i32 0, i64 2), ptr %uc, align 8
  %fUnion2.i6 = getelementptr inbounds i8, ptr %this, i64 440
  store i16 2, ptr %fUnion2.i6, align 8
  %scx = getelementptr inbounds i8, ptr %this, i64 496
  invoke void @_ZN6icu_7510UnicodeSetC1Ev(ptr noundef nonnull align 8 dereferenceable(200) %scx)
          to label %invoke.cont7 unwind label %lpad6

invoke.cont7:                                     ; preds = %invoke.cont5
  %binProps = getelementptr inbounds i8, ptr %this, i64 8
  tail call void @llvm.memset.p0.i64(ptr noundef nonnull align 8 dereferenceable(75) %binProps, i8 0, i64 75, i1 false)
  %intProps = getelementptr inbounds i8, ptr %this, i64 84
  tail call void @llvm.memset.p0.i64(ptr noundef nonnull align 4 dereferenceable(104) %intProps, i8 0, i64 104, i1 false)
  ret void

lpad6:                                            ; preds = %invoke.cont5
  %0 = landingpad { ptr, i32 }
          cleanup
  tail call void @_ZN6icu_7513UnicodeStringD1Ev(ptr noundef nonnull align 8 dereferenceable(64) %uc) #21
  tail call void @_ZN6icu_7513UnicodeStringD1Ev(ptr noundef nonnull align 8 dereferenceable(64) %tc) #21
  tail call void @_ZN6icu_7513UnicodeStringD1Ev(ptr noundef nonnull align 8 dereferenceable(64) %lc) #21
  tail call void @_ZN6icu_7513UnicodeStringD1Ev(ptr noundef nonnull align 8 dereferenceable(64) %cf) #21
  resume { ptr, i32 } %0
}